; Function Attrs: mustprogress uwtable
define noundef zeroext i1 @_ZN4base17NormalizeFilePathERKNS_8FilePathEPS0_(ptr noundef nonnull readonly align 8 captures(none) dereferenceable(32) %0, ptr noundef %1) local_unnamed_addr #0 personality ptr @__gxx_personality_v0 {
  %3 = alloca [4096 x i8], align 16
  %4 = alloca %"class.base::FilePath", align 8
  %5 = alloca %"class.base::FilePath", align 8
  %6 = alloca %struct.stat64, align 8
  call void @llvm.lifetime.start.p0(i64 32, ptr nonnull %5) #24
  call void @_ZN4base8FilePathC1Ev(ptr noundef nonnull align 8 dereferenceable(32) %5)
  %.val = load ptr, ptr %0, align 8, !tbaa !3
  call void @llvm.lifetime.start.p0(i64 4096, ptr nonnull %3) #24
  %7 = call ptr @realpath(ptr noundef readonly %.val, ptr noundef nonnull %3) #24
  %.not.i.not = icmp eq ptr %7, null
  br i1 %.not.i.not, label %13, label %8

8:                                                ; preds = %2
  call void @llvm.lifetime.start.p0(i64 32, ptr nonnull %4) #24
  %9 = call noundef i64 @strlen(ptr noundef nonnull dereferenceable(1) %3) #24
  invoke void @_ZN4base8FilePathC1ENS_16BasicStringPieceINSt7__cxx1112basic_stringIcSt11char_traitsIcESaIcEEEEE(ptr noundef nonnull align 8 dereferenceable(32) %4, ptr nonnull %3, i64 %9)
          to label %.noexc unwind label %14

.noexc:                                           ; preds = %8
  %10 = invoke noundef nonnull align 8 dereferenceable(32) ptr @_ZN4base8FilePathaSERKS0_(ptr noundef nonnull align 8 dereferenceable(32) %5, ptr noundef nonnull align 8 dereferenceable(32) %4)
          to label %16 unwind label %11

11:                                               ; preds = %.noexc
  %12 = landingpad { ptr, i32 }
          cleanup
  call void @_ZN4base8FilePathD1Ev(ptr noundef nonnull align 8 dereferenceable(32) %4) #24
  call void @llvm.lifetime.end.p0(i64 32, ptr nonnull %4) #24
  call void @llvm.lifetime.end.p0(i64 4096, ptr nonnull %3) #24
  br label %.body

13:                                               ; preds = %2
  call void @llvm.lifetime.end.p0(i64 4096, ptr nonnull %3) #24
  br label %29

14:                                               ; preds = %8
  %15 = landingpad { ptr, i32 }
          cleanup
  br label %.body

16:                                               ; preds = %.noexc
  call void @_ZN4base8FilePathD1Ev(ptr noundef nonnull align 8 dereferenceable(32) %4) #24
  call void @llvm.lifetime.end.p0(i64 32, ptr nonnull %4) #24
  call void @llvm.lifetime.end.p0(i64 4096, ptr nonnull %3) #24
  call void @llvm.lifetime.start.p0(i64 144, ptr nonnull %6) #24
  %17 = load ptr, ptr %5, align 8, !tbaa !3
  %18 = call noundef i32 @stat64(ptr noundef readonly %17, ptr noundef nonnull %6) #24
  %.not = icmp eq i32 %18, 0
  br i1 %.not, label %19, label %28

19:                                               ; preds = %16
  %20 = getelementptr inbounds nuw i8, ptr %6, i64 24
  %21 = load i32, ptr %20, align 8, !tbaa !13
  %22 = and i32 %21, 61440
  %23 = icmp eq i32 %22, 16384
  br i1 %23, label %28, label %26

24:                                               ; preds = %26
  %25 = landingpad { ptr, i32 }
          cleanup
  call void @llvm.lifetime.end.p0(i64 144, ptr nonnull %6) #24
  br label %.body

26:                                               ; preds = %19
  %27 = invoke noundef nonnull align 8 dereferenceable(32) ptr @_ZN4base8FilePathaSERKS0_(ptr noundef nonnull align 8 dereferenceable(32) %1, ptr noundef nonnull align 8 dereferenceable(32) %5)
          to label %28 unwind label %24

28:                                               ; preds = %26, %16, %19
  %.1 = phi i1 [ false, %19 ], [ false, %16 ], [ true, %26 ]
  call void @llvm.lifetime.end.p0(i64 144, ptr nonnull %6) #24
  br label %29

29:                                               ; preds = %13, %28
  %.05 = phi i1 [ %.1, %28 ], [ false, %13 ]
  call void @_ZN4base8FilePathD1Ev(ptr noundef nonnull align 8 dereferenceable(32) %5) #24
  call void @llvm.lifetime.end.p0(i64 32, ptr nonnull %5) #24
  ret i1 %.05

.body:                                            ; preds = %14, %11, %24
  %.pn = phi { ptr, i32 } [ %25, %24 ], [ %15, %14 ], [ %12, %11 ]
  call void @_ZN4base8FilePathD1Ev(ptr noundef nonnull align 8 dereferenceable(32) %5) #24
  call void @llvm.lifetime.end.p0(i64 32, ptr nonnull %5) #24
  resume { ptr, i32 } %.pn
}